target datalayout = "e-m:e-p270:32:32-p271:32:32-p272:64:64-i64:64-i128:128-f80:128-n8:16:32:64-S128"
target triple = "x86_64-pc-linux-gnu"

%"class.cv::Feature2D" = type { %"class.cv::Algorithm" }
%"class.cv::Algorithm" = type { ptr }
%"class.cv::Size_" = type { i32, i32 }
%"class.cv::details::Chessboard" = type <{ %"class.cv::Feature2D", %"struct.cv::details::Chessboard::Parameters", [4 x i8] }>
%"struct.cv::details::Chessboard::Parameters" = type <{ %"class.cv::Size_", i32, i32, i32, i32, i8, i8, i8, i8 }>

; Function Attrs: inlinehint mustprogress nounwind uwtable
define linkonce_odr hidden void @_ZN2cv5Size_IiEC2Eii(ptr noundef nonnull align 4 dereferenceable(8) %0, i32 noundef %1, i32 noundef %2) unnamed_addr #6 comdat align 2 {
  %4 = alloca ptr, align 8
  %5 = alloca i32, align 4
  %6 = alloca i32, align 4
  store ptr %0, ptr %4, align 8, !tbaa !151
  store i32 %1, ptr %5, align 4, !tbaa !3
  store i32 %2, ptr %6, align 4, !tbaa !3
  %7 = load ptr, ptr %4, align 8
  %8 = getelementptr inbounds nuw %"class.cv::Size_", ptr %7, i32 0, i32 0
  %9 = load i32, ptr %5, align 4, !tbaa !3
  store i32 %9, ptr %8, align 4, !tbaa !35
  %10 = getelementptr inbounds nuw %"class.cv::Size_", ptr %7, i32 0, i32 1
  %11 = load i32, ptr %6, align 4, !tbaa !3
  store i32 %11, ptr %10, align 4, !tbaa !39
  ret void
}

; Function Attrs: inlinehint mustprogress nounwind uwtable
define linkonce_odr hidden void @_ZN2cv5Size_IiEC2Ev(ptr noundef nonnull align 4 dereferenceable(8) %0) unnamed_addr #6 comdat align 2 {
  %2 = alloca ptr, align 8
  store ptr %0, ptr %2, align 8, !tbaa !151
  %3 = load ptr, ptr %2, align 8
  %4 = getelementptr inbounds nuw %"class.cv::Size_", ptr %3, i32 0, i32 0
  store i32 0, ptr %4, align 4, !tbaa !35
  %5 = getelementptr inbounds nuw %"class.cv::Size_", ptr %3, i32 0, i32 1
  store i32 0, ptr %5, align 4, !tbaa !39
  ret void
}

; Function Attrs: mustprogress nounwind uwtable
define hidden void @_ZN2cv7details10Chessboard11reconfigureERKNS1_10ParametersE(ptr noundef nonnull align 8 dereferenceable(36) %0, ptr noundef nonnull align 4 dereferenceable(27) %1) #7 align 2 {
  %3 = alloca ptr, align 8
  %4 = alloca ptr, align 8
  store ptr %0, ptr %3, align 8, !tbaa !493
  store ptr %1, ptr %4, align 8, !tbaa !495
  %5 = load ptr, ptr %3, align 8
  %6 = load ptr, ptr %4, align 8, !tbaa !495
  %7 = getelementptr inbounds nuw %"class.cv::details::Chessboard", ptr %5, i32 0, i32 1
  call void @llvm.memcpy.p0.p0.i64(ptr align 8 %7, ptr align 4 %6, i64 27, i1 false), !tbaa.struct !505
  ret void
}

; Function Attrs: mustprogress uwtable
define linkonce_odr hidden void @_ZN2cv7details10Chessboard10ParametersC2Ev(ptr noundef nonnull align 4 dereferenceable(27) %0) unnamed_addr #5 comdat align 2 {
  %2 = alloca ptr, align 8
  %3 = alloca %"class.cv::Size_", align 4
  store ptr %0, ptr %2, align 8, !tbaa !495
  %4 = load ptr, ptr %2, align 8
  %5 = getelementptr inbounds nuw %"struct.cv::details::Chessboard::Parameters", ptr %4, i32 0, i32 0
  call void @_ZN2cv5Size_IiEC2Ev(ptr noundef nonnull align 4 dereferenceable(8) %5)
  call void @llvm.lifetime.start.p0(i64 8, ptr %3) #3
  call void @_ZN2cv5Size_IiEC2Eii(ptr noundef nonnull align 4 dereferenceable(8) %3, i32 noundef 9, i32 noundef 6)
  %6 = getelementptr inbounds nuw %"struct.cv::details::Chessboard::Parameters", ptr %4, i32 0, i32 0
  call void @llvm.memcpy.p0.p0.i64(ptr align 4 %6, ptr align 4 %3, i64 8, i1 false), !tbaa.struct !40
  call void @llvm.lifetime.end.p0(i64 8, ptr %3) #3
  %7 = getelementptr inbounds nuw %"struct.cv::details::Chessboard::Parameters", ptr %4, i32 0, i32 1
  store i32 3, ptr %7, align 4, !tbaa !497
  %8 = getelementptr inbounds nuw %"struct.cv::details::Chessboard::Parameters", ptr %4, i32 0, i32 2
  store i32 4, ptr %8, align 4, !tbaa !499
  %9 = getelementptr inbounds nuw %"struct.cv::details::Chessboard::Parameters", ptr %4, i32 0, i32 5
  store i8 1, ptr %9, align 4, !tbaa !500
  %10 = getelementptr inbounds nuw %"struct.cv::details::Chessboard::Parameters", ptr %4, i32 0, i32 3
  store i32 200, ptr %10, align 4, !tbaa !501
  %11 = getelementptr inbounds nuw %"struct.cv::details::Chessboard::Parameters", ptr %4, i32 0, i32 4
  store i32 50, ptr %11, align 4, !tbaa !502
  %12 = getelementptr inbounds nuw %"struct.cv::details::Chessboard::Parameters", ptr %4, i32 0, i32 6
  store i8 0, ptr %12, align 1, !tbaa !503
  %13 = getelementptr inbounds nuw %"struct.cv::details::Chessboard::Parameters", ptr %4, i32 0, i32 7
  store i8 0, ptr %13, align 2, !tbaa !504
  ret void
}

; Function Attrs: inlinehint mustprogress nounwind uwtable
define linkonce_odr hidden void @_ZN2cv9Feature2DC2Ev(ptr noundef nonnull align 8 dereferenceable(8) %0, ptr noundef %1) unnamed_addr #6 comdat align 2 {
  %3 = alloca ptr, align 8
  %4 = alloca ptr, align 8
  store ptr %0, ptr %3, align 8, !tbaa !18
  store ptr %1, ptr %4, align 8, !tbaa !12
  %5 = load ptr, ptr %3, align 8
  %6 = load ptr, ptr %4, align 8
  %7 = load ptr, ptr %6, align 8
  store ptr %7, ptr %5, align 8, !tbaa !16
  %8 = getelementptr inbounds ptr, ptr %6, i64 1
  %9 = load ptr, ptr %8, align 8
  %10 = load ptr, ptr %5, align 8, !tbaa !16
  %11 = getelementptr i8, ptr %10, i64 -80
  %12 = load i64, ptr %11, align 8
  %13 = getelementptr inbounds i8, ptr %5, i64 %12
  store ptr %9, ptr %13, align 8, !tbaa !16
  ret void
}

; Function Attrs: mustprogress uwtable
define hidden void @_ZN2cv7details10ChessboardC2ERKNS1_10ParametersE(ptr noundef nonnull align 8 dereferenceable(36) %0, ptr noundef %1, ptr noundef nonnull align 4 dereferenceable(27) %2) unnamed_addr #5 align 2 personality ptr @__gxx_personality_v0 {
  %4 = alloca ptr, align 8
  %5 = alloca ptr, align 8
  %6 = alloca ptr, align 8
  %7 = alloca ptr, align 8
  %8 = alloca i32, align 4
  store ptr %0, ptr %4, align 8, !tbaa !493
  store ptr %1, ptr %5, align 8, !tbaa !12
  store ptr %2, ptr %6, align 8, !tbaa !495
  %9 = load ptr, ptr %4, align 8
  %10 = load ptr, ptr %5, align 8
  %11 = getelementptr inbounds ptr, ptr %10, i64 1
  call void @_ZN2cv9Feature2DC2Ev(ptr noundef nonnull align 8 dereferenceable(8) %9, ptr noundef %11)
  %12 = load ptr, ptr %10, align 8
  store ptr %12, ptr %9, align 8, !tbaa !16
  %13 = getelementptr inbounds ptr, ptr %10, i64 3
  %14 = load ptr, ptr %13, align 8
  %15 = load ptr, ptr %9, align 8, !tbaa !16
  %16 = getelementptr i8, ptr %15, i64 -80
  %17 = load i64, ptr %16, align 8
  %18 = getelementptr inbounds i8, ptr %9, i64 %17
  store ptr %14, ptr %18, align 8, !tbaa !16
  %19 = getelementptr inbounds nuw %"class.cv::details::Chessboard", ptr %9, i32 0, i32 1
  invoke void @_ZN2cv7details10Chessboard10ParametersC2Ev(ptr noundef nonnull align 4 dereferenceable(27) %19)
          to label %20 unwind label %23

20:                                               ; preds = %3
  %21 = load ptr, ptr %6, align 8, !tbaa !495
  invoke void @_ZN2cv7details10Chessboard11reconfigureERKNS1_10ParametersE(ptr noundef nonnull align 8 dereferenceable(36) %9, ptr noundef nonnull align 4 dereferenceable(27) %21)
          to label %22 unwind label %23

22:                                               ; preds = %20
  ret void

23:                                               ; preds = %20, %3
  %24 = landingpad { ptr, i32 }
          cleanup
  %25 = extractvalue { ptr, i32 } %24, 0
  store ptr %25, ptr %7, align 8
  %26 = extractvalue { ptr, i32 } %24, 1
  store i32 %26, ptr %8, align 4
  %27 = getelementptr inbounds ptr, ptr %10, i64 1
  call void @_ZN2cv9Feature2DD2Ev(ptr noundef nonnull align 8 dereferenceable(8) %9, ptr noundef %27) #3
  br label %28

28:                                               ; preds = %23
  %29 = load ptr, ptr %7, align 8
  %30 = load i32, ptr %8, align 4
  %31 = insertvalue { ptr, i32 } poison, ptr %29, 0
  %32 = insertvalue { ptr, i32 } %31, i32 %30, 1
  resume { ptr, i32 } %32
}