; Function Attrs: mustprogress nofree norecurse nosync nounwind willreturn memory(read, argmem: readwrite, inaccessiblemem: none) uwtable
define hidden void @_ZN2cv7details10ChessboardC2ERKNS1_10ParametersE(ptr noundef nonnull writeonly align 8 captures(none) dereferenceable(36) initializes((0, 35)) %0, ptr noundef readonly captures(none) %1, ptr noundef nonnull readonly align 4 captures(none) dereferenceable(27) %2) unnamed_addr #26 align 2 personality ptr @__gxx_personality_v0 {
  %4 = getelementptr inbounds nuw i8, ptr %1, i64 8
  %5 = load ptr, ptr %4, align 8
  store ptr %5, ptr %0, align 8, !tbaa !3
  %6 = getelementptr inbounds nuw i8, ptr %1, i64 16
  %7 = load ptr, ptr %6, align 8
  %8 = getelementptr i8, ptr %5, i64 -80
  %9 = load i64, ptr %8, align 8
  %10 = getelementptr inbounds i8, ptr %0, i64 %9
  store ptr %7, ptr %10, align 8, !tbaa !3
  %11 = load ptr, ptr %1, align 8
  store ptr %11, ptr %0, align 8, !tbaa !3
  %12 = getelementptr inbounds nuw i8, ptr %1, i64 24
  %13 = load ptr, ptr %12, align 8
  %14 = getelementptr i8, ptr %11, i64 -80
  %15 = load i64, ptr %14, align 8
  %16 = getelementptr inbounds i8, ptr %0, i64 %15
  store ptr %13, ptr %16, align 8, !tbaa !3
  %17 = getelementptr inbounds nuw i8, ptr %0, i64 8
  store i64 25769803785, ptr %17, align 8
  %18 = getelementptr inbounds nuw i8, ptr %0, i64 16
  store i32 3, ptr %18, align 8, !tbaa !716
  %19 = getelementptr inbounds nuw i8, ptr %0, i64 20
  store i32 4, ptr %19, align 4, !tbaa !718
  %20 = getelementptr inbounds nuw i8, ptr %0, i64 32
  store i8 1, ptr %20, align 8, !tbaa !719
  %21 = getelementptr inbounds nuw i8, ptr %0, i64 24
  store i32 200, ptr %21, align 8, !tbaa !720
  %22 = getelementptr inbounds nuw i8, ptr %0, i64 28
  store i32 50, ptr %22, align 4, !tbaa !721
  %23 = getelementptr inbounds nuw i8, ptr %0, i64 33
  store i8 0, ptr %23, align 1, !tbaa !722
  %24 = getelementptr inbounds nuw i8, ptr %0, i64 34
  store i8 0, ptr %24, align 2, !tbaa !723
  tail call void @llvm.memcpy.p0.p0.i64(ptr noundef nonnull align 8 dereferenceable(27) %17, ptr noundef nonnull readonly align 4 dereferenceable(27) %2, i64 27, i1 false), !tbaa.struct !724
  ret void
}